target datalayout = "e-m:e-p270:32:32-p271:32:32-p272:64:64-i64:64-i128:128-f80:128-n8:16:32:64-S128"
target triple = "x86_64-pc-linux-gnu"

%class.QMetaType = type { ptr }

; Function Attrs: mustprogress nounwind uwtable
define linkonce_odr void @_ZN9QMetaTypeC2Ev(ptr noundef nonnull align 8 dereferenceable(8) %0) unnamed_addr #2 comdat align 2 {
  %2 = alloca ptr, align 8
  store ptr %0, ptr %2, align 8
  %3 = load ptr, ptr %2, align 8
  %4 = getelementptr inbounds %class.QMetaType, ptr %3, i32 0, i32 0
  store ptr null, ptr %4, align 8
  ret void
}

; Function Attrs: mustprogress uwtable
define noundef i32 @_ZN12CFrmSettings11qt_metacallEN11QMetaObject4CallEiPPv(ptr noundef nonnull align 8 dereferenceable(152) %0, i32 noundef %1, i32 noundef %2, ptr noundef %3) unnamed_addr #0 align 2 {
  %5 = alloca i32, align 4
  %6 = alloca ptr, align 8
  %7 = alloca i32, align 4
  %8 = alloca i32, align 4
  %9 = alloca ptr, align 8
  %10 = alloca %class.QMetaType, align 8
  store ptr %0, ptr %6, align 8
  store i32 %1, ptr %7, align 4
  store i32 %2, ptr %8, align 4
  store ptr %3, ptr %9, align 8
  %11 = load ptr, ptr %6, align 8
  %12 = load i32, ptr %7, align 4
  %13 = load i32, ptr %8, align 4
  %14 = load ptr, ptr %9, align 8
  %15 = call noundef i32 @_ZN7QDialog11qt_metacallEN11QMetaObject4CallEiPPv(ptr noundef nonnull align 8 dereferenceable(40) %11, i32 noundef %12, i32 noundef %13, ptr noundef %14)
  store i32 %15, ptr %8, align 4
  %16 = load i32, ptr %8, align 4
  %17 = icmp slt i32 %16, 0
  br i1 %17, label %18, label %20

18:                                               ; preds = %4
  %19 = load i32, ptr %8, align 4
  store i32 %19, ptr %5, align 4
  br label %49

20:                                               ; preds = %4
  %21 = load i32, ptr %7, align 4
  %22 = icmp eq i32 %21, 0
  br i1 %22, label %23, label %33

23:                                               ; preds = %20
  %24 = load i32, ptr %8, align 4
  %25 = icmp slt i32 %24, 9
  br i1 %25, label %26, label %30

26:                                               ; preds = %23
  %27 = load i32, ptr %7, align 4
  %28 = load i32, ptr %8, align 4
  %29 = load ptr, ptr %9, align 8
  call void @_ZN12CFrmSettings18qt_static_metacallEP7QObjectN11QMetaObject4CallEiPPv(ptr noundef %11, i32 noundef %27, i32 noundef %28, ptr noundef %29)
  br label %30

30:                                               ; preds = %26, %23
  %31 = load i32, ptr %8, align 4
  %32 = sub nsw i32 %31, 9
  store i32 %32, ptr %8, align 4
  br label %47

33:                                               ; preds = %20
  %34 = load i32, ptr %7, align 4
  %35 = icmp eq i32 %34, 7
  br i1 %35, label %36, label %46

36:                                               ; preds = %33
  %37 = load i32, ptr %8, align 4
  %38 = icmp slt i32 %37, 9
  br i1 %38, label %39, label %43

39:                                               ; preds = %36
  call void @llvm.memset.p0.i64(ptr align 8 %10, i8 0, i64 8, i1 false)
  call void @_ZN9QMetaTypeC2Ev(ptr noundef nonnull align 8 dereferenceable(8) %10) #10
  %40 = load ptr, ptr %9, align 8
  %41 = getelementptr inbounds ptr, ptr %40, i64 0
  %42 = load ptr, ptr %41, align 8
  call void @llvm.memcpy.p0.p0.i64(ptr align 8 %42, ptr align 8 %10, i64 8, i1 false)
  br label %43

43:                                               ; preds = %39, %36
  %44 = load i32, ptr %8, align 4
  %45 = sub nsw i32 %44, 9
  store i32 %45, ptr %8, align 4
  br label %46

46:                                               ; preds = %43, %33
  br label %47

47:                                               ; preds = %46, %30
  %48 = load i32, ptr %8, align 4
  store i32 %48, ptr %5, align 4
  br label %49

49:                                               ; preds = %47, %18
  %50 = load i32, ptr %5, align 4
  ret i32 %50
}